; Function Attrs: mustprogress nounwind uwtable
define void @_ZN5boost3log11v2_mt_posix5sinks17text_file_backend18set_file_collectorERKNS_10shared_ptrINS2_4file9collectorEEE(ptr nocapture noundef nonnull readonly align 8 dereferenceable(8) %0, ptr nocapture noundef nonnull readonly align 8 dereferenceable(16) %1) local_unnamed_addr #11 align 2 personality ptr @__gxx_personality_v0 {
  %3 = load ptr, ptr %0, align 8, !tbaa !225
  %4 = getelementptr inbounds nuw i8, ptr %3, i64 704
  %5 = load ptr, ptr %1, align 8, !tbaa !191
  %6 = getelementptr inbounds nuw i8, ptr %1, i64 8
  %7 = load ptr, ptr %6, align 8, !tbaa !73
  %.not.i.i.i = icmp eq ptr %7, null
  br i1 %.not.i.i.i, label %_ZN5boost10shared_ptrINS_3log11v2_mt_posix5sinks4file9collectorEEC2ERKS6_.exit.i, label %8

8:                                                ; preds = %2
  %9 = getelementptr inbounds nuw i8, ptr %7, i64 8
  %10 = atomicrmw add ptr %9, i32 1 monotonic, align 4
  br label %_ZN5boost10shared_ptrINS_3log11v2_mt_posix5sinks4file9collectorEEC2ERKS6_.exit.i

_ZN5boost10shared_ptrINS_3log11v2_mt_posix5sinks4file9collectorEEC2ERKS6_.exit.i: ; preds = %8, %2
  store ptr %5, ptr %4, align 8, !tbaa !17
  %11 = getelementptr inbounds nuw i8, ptr %3, i64 712
  %12 = load ptr, ptr %11, align 8, !tbaa !73
  store ptr %7, ptr %11, align 8, !tbaa !73
  %.not.i.i2.i = icmp eq ptr %12, null
  br i1 %.not.i.i2.i, label %_ZN5boost10shared_ptrINS_3log11v2_mt_posix5sinks4file9collectorEEaSERKS6_.exit, label %13

13:                                               ; preds = %_ZN5boost10shared_ptrINS_3log11v2_mt_posix5sinks4file9collectorEEC2ERKS6_.exit.i
  %14 = getelementptr inbounds nuw i8, ptr %12, i64 8
  %15 = atomicrmw sub ptr %14, i32 1 acq_rel, align 4
  %16 = icmp eq i32 %15, 1
  br i1 %16, label %17, label %_ZN5boost10shared_ptrINS_3log11v2_mt_posix5sinks4file9collectorEEaSERKS6_.exit

17:                                               ; preds = %13
  %18 = load ptr, ptr %12, align 8, !tbaa !49
  %19 = getelementptr inbounds i8, ptr %18, i64 16
  %20 = load ptr, ptr %19, align 8
  invoke void %20(ptr noundef nonnull align 8 dereferenceable(16) %12)
          to label %.noexc.i.i.i unwind label %28

.noexc.i.i.i:                                     ; preds = %17
  %21 = getelementptr inbounds nuw i8, ptr %12, i64 12
  %22 = atomicrmw sub ptr %21, i32 1 acq_rel, align 4
  %23 = icmp eq i32 %22, 1
  br i1 %23, label %24, label %_ZN5boost10shared_ptrINS_3log11v2_mt_posix5sinks4file9collectorEEaSERKS6_.exit

24:                                               ; preds = %.noexc.i.i.i
  %25 = load ptr, ptr %12, align 8, !tbaa !49
  %26 = getelementptr inbounds i8, ptr %25, i64 24
  %27 = load ptr, ptr %26, align 8
  invoke void %27(ptr noundef nonnull align 8 dereferenceable(16) %12)
          to label %_ZN5boost10shared_ptrINS_3log11v2_mt_posix5sinks4file9collectorEEaSERKS6_.exit unwind label %28

28:                                               ; preds = %24, %17
  %29 = landingpad { ptr, i32 }
          catch ptr null
  %30 = extractvalue { ptr, i32 } %29, 0
  tail call void @__clang_call_terminate(ptr %30) #31
  unreachable

_ZN5boost10shared_ptrINS_3log11v2_mt_posix5sinks4file9collectorEEaSERKS6_.exit: ; preds = %_ZN5boost10shared_ptrINS_3log11v2_mt_posix5sinks4file9collectorEEC2ERKS6_.exit.i, %13, %.noexc.i.i.i, %24
  ret void
}